target datalayout = "e-m:e-p270:32:32-p271:32:32-p272:64:64-i64:64-i128:128-f80:128-n8:16:32:64-S128"
target triple = "x86_64-pc-linux-gnu"

%struct.H5FL_reg_head_t = type { i8, i32, i32, ptr, i64, ptr }
%struct.H5FL_seq_head_t = type { %struct.H5FL_blk_head_t, i64 }
%struct.H5FL_blk_head_t = type { i8, i32, i32, i64, ptr, ptr }
%struct.H5EA_hdr_t = type { %struct.H5C_cache_entry_t, %struct.H5EA_create_t, i64, %struct.H5EA_stat_t, %struct.anon.1, i64, i64, i64, ptr, i64, i8, i64, i64, i8, i64, ptr, i64, ptr, i8, ptr, ptr }
%struct.H5C_cache_entry_t = type { ptr, i64, i64, ptr, i8, ptr, i8, i8, i8, i8, i32, i8, i8, i8, i8, i8, i32, ptr, i32, i32, i32, i32, i32, i8, i8, ptr, ptr, ptr, ptr, ptr, ptr, i8, i32, i8, i64, ptr, i64, i64, i32, i8, i32, i32, i8, ptr, ptr, ptr }
%struct.H5EA_create_t = type { ptr, i8, i8, i8, i8, i8, i8 }
%struct.H5EA_stat_t = type { %struct.anon, %struct.anon.0 }
%struct.anon = type { i64, i64, i64 }
%struct.anon.0 = type { i64, i64, i64, i64, i64, i64 }
%struct.anon.1 = type { i64, ptr }
%struct.H5EA_class_t = type { i32, ptr, i64, ptr, ptr, ptr, ptr, ptr, ptr, ptr, ptr }

@H5_H5EA_hdr_t_reg_free_list = internal global %struct.H5FL_reg_head_t { i8 0, i32 0, i32 0, ptr @.str.25, i64 488, ptr null }, align 8
@.str = private unnamed_addr constant [101 x i8] c"generated/home/dtcxzyw/WorkSpace/Projects/compilers/llvm-opt-benchmark/bench/hdf5/hdf5/src/H5EAhdr.c\00", align 1
@__func__.H5EA__hdr_alloc = private unnamed_addr constant [16 x i8] c"H5EA__hdr_alloc\00", align 1
@H5E_EARRAY_g = external global i64, align 8
@H5E_CANTALLOC_g = external global i64, align 8
@.str.1 = private unnamed_addr constant [60 x i8] c"memory allocation failed for extensible array shared header\00", align 1
@H5E_CANTFREE_g = external global i64, align 8
@.str.2 = private unnamed_addr constant [42 x i8] c"unable to destroy extensible array header\00", align 1
@H5_H5EA_sblk_info_t_seq_free_list = internal global %struct.H5FL_seq_head_t { %struct.H5FL_blk_head_t { i8 0, i32 0, i32 0, i64 0, ptr @.str.26, ptr null }, i64 32 }, align 8
@H5_H5FL_fac_head_ptr_t_seq_free_list = internal global %struct.H5FL_seq_head_t { %struct.H5FL_blk_head_t { i8 0, i32 0, i32 0, i64 0, ptr @.str.27, ptr null }, i64 8 }, align 8
@__func__.H5EA__hdr_dest = private unnamed_addr constant [15 x i8] c"H5EA__hdr_dest\00", align 1
@H5E_CANTRELEASE_g = external global i64, align 8
@.str.22 = private unnamed_addr constant [59 x i8] c"unable to destroy extensible array client callback context\00", align 1
@.str.23 = private unnamed_addr constant [50 x i8] c"unable to destroy extensible array header factory\00", align 1
@.str.24 = private unnamed_addr constant [47 x i8] c"unable to destroy extensible array 'top' proxy\00", align 1

; Function Attrs: nounwind uwtable
define i32 @H5EA__hdr_dest(ptr noundef %0) #0 {
  %2 = alloca ptr, align 8
  %3 = alloca i32, align 4
  %4 = alloca i8, align 1
  %5 = alloca i32, align 4
  store ptr %0, ptr %2, align 8
  store i32 0, ptr %3, align 4
  store i8 0, ptr %4, align 1
  %6 = load ptr, ptr %2, align 8
  %7 = getelementptr inbounds %struct.H5EA_hdr_t, ptr %6, i32 0, i32 17
  %8 = load ptr, ptr %7, align 8
  %9 = icmp ne ptr %8, null
  br i1 %9, label %10, label %38

10:                                               ; preds = %1
  %11 = load ptr, ptr %2, align 8
  %12 = getelementptr inbounds %struct.H5EA_hdr_t, ptr %11, i32 0, i32 1
  %13 = getelementptr inbounds %struct.H5EA_create_t, ptr %12, i32 0, i32 0
  %14 = load ptr, ptr %13, align 8
  %15 = getelementptr inbounds %struct.H5EA_class_t, ptr %14, i32 0, i32 4
  %16 = load ptr, ptr %15, align 8
  %17 = load ptr, ptr %2, align 8
  %18 = getelementptr inbounds %struct.H5EA_hdr_t, ptr %17, i32 0, i32 17
  %19 = load ptr, ptr %18, align 8
  %20 = call i32 %16(ptr noundef %19)
  %21 = icmp slt i32 %20, 0
  br i1 %21, label %22, label %37

22:                                               ; preds = %10
  br label %23

23:                                               ; preds = %22
  br label %24

24:                                               ; preds = %23
  br label %25

25:                                               ; preds = %24
  %26 = load i64, ptr @H5E_EARRAY_g, align 8
  %27 = load i64, ptr @H5E_CANTRELEASE_g, align 8
  %28 = call i32 (ptr, ptr, i32, i64, i64, ptr, ...) @H5E_printf_stack(ptr noundef @.str, ptr noundef @__func__.H5EA__hdr_dest, i32 noundef 759, i64 noundef %26, i64 noundef %27, ptr noundef @.str.22)
  br label %29

29:                                               ; preds = %25
  store i8 1, ptr %4, align 1
  %30 = load i8, ptr %4, align 1
  %31 = trunc i8 %30 to i1
  %32 = zext i1 %31 to i8
  store i8 %32, ptr %4, align 1
  br label %33

33:                                               ; preds = %29
  br label %34

34:                                               ; preds = %33
  store i32 -1, ptr %3, align 4
  br label %156

35:                                               ; No predecessors!
  br label %36

36:                                               ; preds = %35
  br label %37

37:                                               ; preds = %36, %10
  br label %38

38:                                               ; preds = %37, %1
  %39 = load ptr, ptr %2, align 8
  %40 = getelementptr inbounds %struct.H5EA_hdr_t, ptr %39, i32 0, i32 17
  store ptr null, ptr %40, align 8
  %41 = load ptr, ptr %2, align 8
  %42 = getelementptr inbounds %struct.H5EA_hdr_t, ptr %41, i32 0, i32 4
  %43 = getelementptr inbounds %struct.anon.1, ptr %42, i32 0, i32 1
  %44 = load ptr, ptr %43, align 8
  %45 = icmp ne ptr %44, null
  br i1 %45, label %46, label %112

46:                                               ; preds = %38
  store i32 0, ptr %5, align 4
  br label %47

47:                                               ; preds = %100, %46
  %48 = load i32, ptr %5, align 4
  %49 = zext i32 %48 to i64
  %50 = load ptr, ptr %2, align 8
  %51 = getelementptr inbounds %struct.H5EA_hdr_t, ptr %50, i32 0, i32 4
  %52 = getelementptr inbounds %struct.anon.1, ptr %51, i32 0, i32 0
  %53 = load i64, ptr %52, align 8
  %54 = icmp ult i64 %49, %53
  br i1 %54, label %55, label %103

55:                                               ; preds = %47
  %56 = load ptr, ptr %2, align 8
  %57 = getelementptr inbounds %struct.H5EA_hdr_t, ptr %56, i32 0, i32 4
  %58 = getelementptr inbounds %struct.anon.1, ptr %57, i32 0, i32 1
  %59 = load ptr, ptr %58, align 8
  %60 = load i32, ptr %5, align 4
  %61 = zext i32 %60 to i64
  %62 = getelementptr inbounds ptr, ptr %59, i64 %61
  %63 = load ptr, ptr %62, align 8
  %64 = icmp ne ptr %63, null
  br i1 %64, label %65, label %99

65:                                               ; preds = %55
  %66 = load ptr, ptr %2, align 8
  %67 = getelementptr inbounds %struct.H5EA_hdr_t, ptr %66, i32 0, i32 4
  %68 = getelementptr inbounds %struct.anon.1, ptr %67, i32 0, i32 1
  %69 = load ptr, ptr %68, align 8
  %70 = load i32, ptr %5, align 4
  %71 = zext i32 %70 to i64
  %72 = getelementptr inbounds ptr, ptr %69, i64 %71
  %73 = load ptr, ptr %72, align 8
  %74 = call i32 @H5FL_fac_term(ptr noundef %73)
  %75 = icmp slt i32 %74, 0
  br i1 %75, label %76, label %91

76:                                               ; preds = %65
  br label %77

77:                                               ; preds = %76
  br label %78

78:                                               ; preds = %77
  br label %79

79:                                               ; preds = %78
  %80 = load i64, ptr @H5E_EARRAY_g, align 8
  %81 = load i64, ptr @H5E_CANTRELEASE_g, align 8
  %82 = call i32 (ptr, ptr, i32, i64, i64, ptr, ...) @H5E_printf_stack(ptr noundef @.str, ptr noundef @__func__.H5EA__hdr_dest, i32 noundef 776, i64 noundef %80, i64 noundef %81, ptr noundef @.str.23)
  br label %83

83:                                               ; preds = %79
  store i8 1, ptr %4, align 1
  %84 = load i8, ptr %4, align 1
  %85 = trunc i8 %84 to i1
  %86 = zext i1 %85 to i8
  store i8 %86, ptr %4, align 1
  br label %87

87:                                               ; preds = %83
  br label %88

88:                                               ; preds = %87
  store i32 -1, ptr %3, align 4
  br label %156

89:                                               ; No predecessors!
  br label %90

90:                                               ; preds = %89
  br label %91

91:                                               ; preds = %90, %65
  %92 = load ptr, ptr %2, align 8
  %93 = getelementptr inbounds %struct.H5EA_hdr_t, ptr %92, i32 0, i32 4
  %94 = getelementptr inbounds %struct.anon.1, ptr %93, i32 0, i32 1
  %95 = load ptr, ptr %94, align 8
  %96 = load i32, ptr %5, align 4
  %97 = zext i32 %96 to i64
  %98 = getelementptr inbounds ptr, ptr %95, i64 %97
  store ptr null, ptr %98, align 8
  br label %99

99:                                               ; preds = %91, %55
  br label %100

100:                                              ; preds = %99
  %101 = load i32, ptr %5, align 4
  %102 = add i32 %101, 1
  store i32 %102, ptr %5, align 4
  br label %47

103:                                              ; preds = %47
  %104 = load ptr, ptr %2, align 8
  %105 = getelementptr inbounds %struct.H5EA_hdr_t, ptr %104, i32 0, i32 4
  %106 = getelementptr inbounds %struct.anon.1, ptr %105, i32 0, i32 1
  %107 = load ptr, ptr %106, align 8
  %108 = call ptr @H5FL_seq_free(ptr noundef @H5_H5FL_fac_head_ptr_t_seq_free_list, ptr noundef %107)
  %109 = load ptr, ptr %2, align 8
  %110 = getelementptr inbounds %struct.H5EA_hdr_t, ptr %109, i32 0, i32 4
  %111 = getelementptr inbounds %struct.anon.1, ptr %110, i32 0, i32 1
  store ptr %108, ptr %111, align 8
  br label %112

112:                                              ; preds = %103, %38
  %113 = load ptr, ptr %2, align 8
  %114 = getelementptr inbounds %struct.H5EA_hdr_t, ptr %113, i32 0, i32 15
  %115 = load ptr, ptr %114, align 8
  %116 = icmp ne ptr %115, null
  br i1 %116, label %117, label %124

117:                                              ; preds = %112
  %118 = load ptr, ptr %2, align 8
  %119 = getelementptr inbounds %struct.H5EA_hdr_t, ptr %118, i32 0, i32 15
  %120 = load ptr, ptr %119, align 8
  %121 = call ptr @H5FL_seq_free(ptr noundef @H5_H5EA_sblk_info_t_seq_free_list, ptr noundef %120)
  %122 = load ptr, ptr %2, align 8
  %123 = getelementptr inbounds %struct.H5EA_hdr_t, ptr %122, i32 0, i32 15
  store ptr %121, ptr %123, align 8
  br label %124

124:                                              ; preds = %117, %112
  %125 = load ptr, ptr %2, align 8
  %126 = getelementptr inbounds %struct.H5EA_hdr_t, ptr %125, i32 0, i32 19
  %127 = load ptr, ptr %126, align 8
  %128 = icmp ne ptr %127, null
  br i1 %128, label %129, label %153

129:                                              ; preds = %124
  %130 = load ptr, ptr %2, align 8
  %131 = getelementptr inbounds %struct.H5EA_hdr_t, ptr %130, i32 0, i32 19
  %132 = load ptr, ptr %131, align 8
  %133 = call i32 @H5AC_proxy_entry_dest(ptr noundef %132)
  %134 = icmp slt i32 %133, 0
  br i1 %134, label %135, label %150

135:                                              ; preds = %129
  br label %136

136:                                              ; preds = %135
  br label %137

137:                                              ; preds = %136
  br label %138

138:                                              ; preds = %137
  %139 = load i64, ptr @H5E_EARRAY_g, align 8
  %140 = load i64, ptr @H5E_CANTRELEASE_g, align 8
  %141 = call i32 (ptr, ptr, i32, i64, i64, ptr, ...) @H5E_printf_stack(ptr noundef @.str, ptr noundef @__func__.H5EA__hdr_dest, i32 noundef 792, i64 noundef %139, i64 noundef %140, ptr noundef @.str.24)
  br label %142

142:                                              ; preds = %138
  store i8 1, ptr %4, align 1
  %143 = load i8, ptr %4, align 1
  %144 = trunc i8 %143 to i1
  %145 = zext i1 %144 to i8
  store i8 %145, ptr %4, align 1
  br label %146

146:                                              ; preds = %142
  br label %147

147:                                              ; preds = %146
  store i32 -1, ptr %3, align 4
  br label %156

148:                                              ; No predecessors!
  br label %149

149:                                              ; preds = %148
  br label %150

150:                                              ; preds = %149, %129
  %151 = load ptr, ptr %2, align 8
  %152 = getelementptr inbounds %struct.H5EA_hdr_t, ptr %151, i32 0, i32 19
  store ptr null, ptr %152, align 8
  br label %153

153:                                              ; preds = %150, %124
  %154 = load ptr, ptr %2, align 8
  %155 = call ptr @H5FL_reg_free(ptr noundef @H5_H5EA_hdr_t_reg_free_list, ptr noundef %154)
  store ptr %155, ptr %2, align 8
  br label %156

156:                                              ; preds = %153, %147, %88, %34
  %157 = load i32, ptr %3, align 4
  ret i32 %157
}

; Function Attrs: nounwind uwtable
define ptr @H5EA__hdr_alloc(ptr noundef %0) #0 {
  %2 = alloca ptr, align 8
  %3 = alloca ptr, align 8
  %4 = alloca ptr, align 8
  %5 = alloca i8, align 1
  store ptr %0, ptr %2, align 8
  store ptr null, ptr %3, align 8
  store ptr null, ptr %4, align 8
  store i8 0, ptr %5, align 1
  %6 = call noalias ptr @H5FL_reg_calloc(ptr noundef @H5_H5EA_hdr_t_reg_free_list)
  store ptr %6, ptr %3, align 8
  %7 = icmp eq ptr null, %6
  br i1 %7, label %8, label %23

8:                                                ; preds = %1
  br label %9

9:                                                ; preds = %8
  br label %10

10:                                               ; preds = %9
  br label %11

11:                                               ; preds = %10
  %12 = load i64, ptr @H5E_EARRAY_g, align 8
  %13 = load i64, ptr @H5E_CANTALLOC_g, align 8
  %14 = call i32 (ptr, ptr, i32, i64, i64, ptr, ...) @H5E_printf_stack(ptr noundef @.str, ptr noundef @__func__.H5EA__hdr_alloc, i32 noundef 114, i64 noundef %12, i64 noundef %13, ptr noundef @.str.1)
  br label %15

15:                                               ; preds = %11
  store i8 1, ptr %5, align 1
  %16 = load i8, ptr %5, align 1
  %17 = trunc i8 %16 to i1
  %18 = zext i1 %17 to i8
  store i8 %18, ptr %5, align 1
  br label %19

19:                                               ; preds = %15
  br label %20

20:                                               ; preds = %19
  store ptr null, ptr %4, align 8
  br label %47

21:                                               ; No predecessors!
  br label %22

22:                                               ; preds = %21
  br label %23

23:                                               ; preds = %22, %1
  %24 = load ptr, ptr %3, align 8
  %25 = getelementptr inbounds %struct.H5EA_hdr_t, ptr %24, i32 0, i32 6
  store i64 -1, ptr %25, align 8
  %26 = load ptr, ptr %2, align 8
  %27 = load ptr, ptr %3, align 8
  %28 = getelementptr inbounds %struct.H5EA_hdr_t, ptr %27, i32 0, i32 8
  store ptr %26, ptr %28, align 8
  %29 = load ptr, ptr %2, align 8
  %30 = call i32 @H5F_get_intent(ptr noundef %29)
  %31 = and i32 %30, 32
  %32 = icmp ugt i32 %31, 0
  %33 = load ptr, ptr %3, align 8
  %34 = getelementptr inbounds %struct.H5EA_hdr_t, ptr %33, i32 0, i32 18
  %35 = zext i1 %32 to i8
  store i8 %35, ptr %34, align 8
  %36 = load ptr, ptr %2, align 8
  %37 = call zeroext i8 @H5F_sizeof_addr(ptr noundef %36)
  %38 = zext i8 %37 to i64
  %39 = load ptr, ptr %3, align 8
  %40 = getelementptr inbounds %struct.H5EA_hdr_t, ptr %39, i32 0, i32 11
  store i64 %38, ptr %40, align 8
  %41 = load ptr, ptr %2, align 8
  %42 = call zeroext i8 @H5F_sizeof_size(ptr noundef %41)
  %43 = zext i8 %42 to i64
  %44 = load ptr, ptr %3, align 8
  %45 = getelementptr inbounds %struct.H5EA_hdr_t, ptr %44, i32 0, i32 12
  store i64 %43, ptr %45, align 8
  %46 = load ptr, ptr %3, align 8
  store ptr %46, ptr %4, align 8
  br label %47

47:                                               ; preds = %23, %20
  %48 = load ptr, ptr %4, align 8
  %49 = icmp ne ptr %48, null
  br i1 %49, label %71, label %50

50:                                               ; preds = %47
  %51 = load ptr, ptr %3, align 8
  %52 = icmp ne ptr %51, null
  br i1 %52, label %53, label %70

53:                                               ; preds = %50
  %54 = load ptr, ptr %3, align 8
  %55 = call i32 @H5EA__hdr_dest(ptr noundef %54)
  %56 = icmp slt i32 %55, 0
  br i1 %56, label %57, label %70

57:                                               ; preds = %53
  br label %58

58:                                               ; preds = %57
  br label %59

59:                                               ; preds = %58
  br label %60

60:                                               ; preds = %59
  %61 = load i64, ptr @H5E_EARRAY_g, align 8
  %62 = load i64, ptr @H5E_CANTFREE_g, align 8
  %63 = call i32 (ptr, ptr, i32, i64, i64, ptr, ...) @H5E_printf_stack(ptr noundef @.str, ptr noundef @__func__.H5EA__hdr_alloc, i32 noundef 131, i64 noundef %61, i64 noundef %62, ptr noundef @.str.2)
  br label %64

64:                                               ; preds = %60
  store i8 1, ptr %5, align 1
  %65 = load i8, ptr %5, align 1
  %66 = trunc i8 %65 to i1
  %67 = zext i1 %66 to i8
  store i8 %67, ptr %5, align 1
  br label %68

68:                                               ; preds = %64
  store ptr null, ptr %4, align 8
  br label %69

69:                                               ; preds = %68
  br label %70

70:                                               ; preds = %69, %53, %50
  br label %71

71:                                               ; preds = %70, %47
  %72 = load ptr, ptr %4, align 8
  ret ptr %72
}