; Function Attrs: nounwind uwtable
define noalias ptr @H5EA__hdr_alloc(ptr noundef %0) local_unnamed_addr #0 {
  %2 = tail call noalias ptr @H5FL_reg_calloc(ptr noundef nonnull @H5_H5EA_hdr_t_reg_free_list) #6
  %3 = icmp eq ptr %2, null
  br i1 %3, label %4, label %8

4:                                                ; preds = %1
  %5 = load i64, ptr @H5E_EARRAY_g, align 8
  %6 = load i64, ptr @H5E_CANTALLOC_g, align 8
  %7 = tail call i32 (ptr, ptr, i32, i64, i64, ptr, ...) @H5E_printf_stack(ptr noundef nonnull @.str, ptr noundef nonnull @__func__.H5EA__hdr_alloc, i32 noundef 114, i64 noundef %5, i64 noundef %6, ptr noundef nonnull @.str.1) #6
  br label %22

8:                                                ; preds = %1
  %9 = getelementptr inbounds i8, ptr %2, i64 368
  store i64 -1, ptr %9, align 8
  %10 = getelementptr inbounds i8, ptr %2, i64 384
  store ptr %0, ptr %10, align 8
  %11 = tail call i32 @H5F_get_intent(ptr noundef %0) #6
  %12 = getelementptr inbounds i8, ptr %2, i64 464
  %13 = trunc i32 %11 to i8
  %14 = lshr i8 %13, 5
  %15 = and i8 %14, 1
  store i8 %15, ptr %12, align 8
  %16 = tail call zeroext i8 @H5F_sizeof_addr(ptr noundef %0) #6
  %17 = zext i8 %16 to i64
  %18 = getelementptr inbounds i8, ptr %2, i64 408
  store i64 %17, ptr %18, align 8
  %19 = tail call zeroext i8 @H5F_sizeof_size(ptr noundef %0) #6
  %20 = zext i8 %19 to i64
  %21 = getelementptr inbounds i8, ptr %2, i64 416
  store i64 %20, ptr %21, align 8
  br label %22

22:                                               ; preds = %4, %8
  ret ptr %2
}